target datalayout = "e-m:e-p270:32:32-p271:32:32-p272:64:64-i64:64-i128:128-f80:128-n8:16:32:64-S128"
target triple = "x86_64-pc-linux-gnu"

%"class.std::__cxx11::basic_string" = type { %"struct.std::__cxx11::basic_string<char>::_Alloc_hider", i64, %union.anon }
%"struct.std::__cxx11::basic_string<char>::_Alloc_hider" = type { ptr }
%union.anon = type { i64, [8 x i8] }
%"struct.pxrInternal_v0_24__pxrReserved__::(anonymous namespace)::_CheckResult" = type { i8, i8 }
%"class.pxrInternal_v0_24__pxrReserved__::TfSpan.38" = type { ptr, i64 }

; Function Attrs: mustprogress nounwind uwtable
define linkonce_odr noundef ptr @_ZNK32pxrInternal_v0_24__pxrReserved__6TfSpanIKNSt7__cxx1112basic_stringIcSt11char_traitsIcESaIcEEEE3endEv(ptr noundef nonnull align 8 dereferenceable(16) %0) #1 comdat align 2 {
  %2 = alloca ptr, align 8
  store ptr %0, ptr %2, align 8
  %3 = load ptr, ptr %2, align 8
  %4 = getelementptr inbounds nuw %"class.pxrInternal_v0_24__pxrReserved__::TfSpan.38", ptr %3, i32 0, i32 0
  %5 = load ptr, ptr %4, align 8
  %6 = getelementptr inbounds nuw %"class.pxrInternal_v0_24__pxrReserved__::TfSpan.38", ptr %3, i32 0, i32 1
  %7 = load i64, ptr %6, align 8
  %8 = getelementptr inbounds %"class.std::__cxx11::basic_string", ptr %5, i64 %7
  ret ptr %8
}

; Function Attrs: mustprogress nounwind uwtable
define linkonce_odr noundef ptr @_ZNK32pxrInternal_v0_24__pxrReserved__6TfSpanIKNSt7__cxx1112basic_stringIcSt11char_traitsIcESaIcEEEE5beginEv(ptr noundef nonnull align 8 dereferenceable(16) %0) #1 comdat align 2 {
  %2 = alloca ptr, align 8
  store ptr %0, ptr %2, align 8
  %3 = load ptr, ptr %2, align 8
  %4 = getelementptr inbounds nuw %"class.pxrInternal_v0_24__pxrReserved__::TfSpan.38", ptr %3, i32 0, i32 0
  %5 = load ptr, ptr %4, align 8
  ret ptr %5
}

; Function Attrs: mustprogress nounwind uwtable
define internal void @_ZN32pxrInternal_v0_24__pxrReserved__12_GLOBAL__N_112_CheckResultC2Ev(ptr noundef nonnull align 1 dereferenceable(2) %0) unnamed_addr #1 align 2 {
  %2 = alloca ptr, align 8
  store ptr %0, ptr %2, align 8
  %3 = load ptr, ptr %2, align 8
  %4 = getelementptr inbounds nuw %"struct.pxrInternal_v0_24__pxrReserved__::(anonymous namespace)::_CheckResult", ptr %3, i32 0, i32 0
  store i8 0, ptr %4, align 1
  %5 = getelementptr inbounds nuw %"struct.pxrInternal_v0_24__pxrReserved__::(anonymous namespace)::_CheckResult", ptr %3, i32 0, i32 1
  store i8 0, ptr %5, align 1
  ret void
}

; Function Attrs: mustprogress uwtable
define internal i16 @_ZN32pxrInternal_v0_24__pxrReserved__L27_CheckSymbolAgainstPatternsEPKcNS_6TfSpanIKNSt7__cxx1112basic_stringIcSt11char_traitsIcESaIcEEEEE(ptr noundef %0, ptr %1, i64 %2) #0 personality ptr @__gxx_personality_v0 {
  %4 = alloca %"struct.pxrInternal_v0_24__pxrReserved__::(anonymous namespace)::_CheckResult", align 1
  %5 = alloca %"class.pxrInternal_v0_24__pxrReserved__::TfSpan.38", align 8
  %6 = alloca ptr, align 8
  %7 = alloca ptr, align 8
  %8 = alloca ptr, align 8
  %9 = alloca ptr, align 8
  %10 = alloca %"class.std::__cxx11::basic_string", align 8
  %11 = alloca i32, align 4
  %12 = alloca i8, align 1
  %13 = alloca ptr, align 8
  %14 = alloca i32, align 4
  %15 = getelementptr inbounds nuw { ptr, i64 }, ptr %5, i32 0, i32 0
  store ptr %1, ptr %15, align 8
  %16 = getelementptr inbounds nuw { ptr, i64 }, ptr %5, i32 0, i32 1
  store i64 %2, ptr %16, align 8
  store ptr %0, ptr %6, align 8
  call void @_ZN32pxrInternal_v0_24__pxrReserved__12_GLOBAL__N_112_CheckResultC2Ev(ptr noundef nonnull align 1 dereferenceable(2) %4) #11
  store ptr %5, ptr %7, align 8
  %17 = load ptr, ptr %7, align 8
  %18 = call noundef ptr @_ZNK32pxrInternal_v0_24__pxrReserved__6TfSpanIKNSt7__cxx1112basic_stringIcSt11char_traitsIcESaIcEEEE5beginEv(ptr noundef nonnull align 8 dereferenceable(16) %17) #11
  store ptr %18, ptr %8, align 8
  %19 = load ptr, ptr %7, align 8
  %20 = call noundef ptr @_ZNK32pxrInternal_v0_24__pxrReserved__6TfSpanIKNSt7__cxx1112basic_stringIcSt11char_traitsIcESaIcEEEE3endEv(ptr noundef nonnull align 8 dereferenceable(16) %19) #11
  store ptr %20, ptr %9, align 8
  br label %21

21:                                               ; preds = %86, %3
  %22 = load ptr, ptr %8, align 8
  %23 = load ptr, ptr %9, align 8
  %24 = icmp ne ptr %22, %23
  br i1 %24, label %25, label %89

25:                                               ; preds = %21
  %26 = load ptr, ptr %8, align 8
  call void @_ZNSt7__cxx1112basic_stringIcSt11char_traitsIcESaIcEEC1ERKS4_(ptr noundef nonnull align 8 dereferenceable(32) %10, ptr noundef nonnull align 8 dereferenceable(32) %26)
  %27 = call noundef zeroext i1 @_ZNKSt7__cxx1112basic_stringIcSt11char_traitsIcESaIcEE5emptyEv(ptr noundef nonnull align 8 dereferenceable(32) %10) #11
  br i1 %27, label %28, label %29

28:                                               ; preds = %25
  store i32 3, ptr %11, align 4
  br label %83

29:                                               ; preds = %25
  store i8 1, ptr %12, align 1
  %30 = invoke noundef nonnull align 1 dereferenceable(1) ptr @_ZNSt7__cxx1112basic_stringIcSt11char_traitsIcESaIcEEixEm(ptr noundef nonnull align 8 dereferenceable(32) %10, i64 noundef 0)
          to label %31 unwind label %38

31:                                               ; preds = %29
  %32 = load i8, ptr %30, align 1
  %33 = sext i8 %32 to i32
  %34 = icmp eq i32 %33, 45
  br i1 %34, label %35, label %42

35:                                               ; preds = %31
  %36 = invoke noundef nonnull align 8 dereferenceable(32) ptr @_ZNSt7__cxx1112basic_stringIcSt11char_traitsIcESaIcEE5eraseEmm(ptr noundef nonnull align 8 dereferenceable(32) %10, i64 noundef 0, i64 noundef 1)
          to label %37 unwind label %38

37:                                               ; preds = %35
  store i8 0, ptr %12, align 1
  br label %42

38:                                               ; preds = %53, %45, %35, %29
  %39 = landingpad { ptr, i32 }
          cleanup
  %40 = extractvalue { ptr, i32 } %39, 0
  store ptr %40, ptr %13, align 8
  %41 = extractvalue { ptr, i32 } %39, 1
  store i32 %41, ptr %14, align 4
  call void @_ZNSt7__cxx1112basic_stringIcSt11char_traitsIcESaIcEED1Ev(ptr noundef nonnull align 8 dereferenceable(32) %10) #11
  br label %91

42:                                               ; preds = %37, %31
  %43 = call noundef zeroext i1 @_ZNKSt7__cxx1112basic_stringIcSt11char_traitsIcESaIcEE5emptyEv(ptr noundef nonnull align 8 dereferenceable(32) %10) #11
  br i1 %43, label %44, label %45

44:                                               ; preds = %42
  store i32 3, ptr %11, align 4
  br label %83

45:                                               ; preds = %42
  %46 = call noundef i64 @_ZNKSt7__cxx1112basic_stringIcSt11char_traitsIcESaIcEE4sizeEv(ptr noundef nonnull align 8 dereferenceable(32) %10) #11
  %47 = sub i64 %46, 1
  %48 = invoke noundef nonnull align 1 dereferenceable(1) ptr @_ZNSt7__cxx1112basic_stringIcSt11char_traitsIcESaIcEEixEm(ptr noundef nonnull align 8 dereferenceable(32) %10, i64 noundef %47)
          to label %49 unwind label %38

49:                                               ; preds = %45
  %50 = load i8, ptr %48, align 1
  %51 = sext i8 %50 to i32
  %52 = icmp eq i32 %51, 42
  br i1 %52, label %53, label %70

53:                                               ; preds = %49
  %54 = call noundef i64 @_ZNKSt7__cxx1112basic_stringIcSt11char_traitsIcESaIcEE4sizeEv(ptr noundef nonnull align 8 dereferenceable(32) %10) #11
  %55 = sub i64 %54, 1
  %56 = invoke noundef nonnull align 8 dereferenceable(32) ptr @_ZNSt7__cxx1112basic_stringIcSt11char_traitsIcESaIcEE5eraseEmm(ptr noundef nonnull align 8 dereferenceable(32) %10, i64 noundef %55, i64 noundef -1)
          to label %57 unwind label %38

57:                                               ; preds = %53
  %58 = load ptr, ptr %6, align 8
  %59 = call noundef ptr @_ZNKSt7__cxx1112basic_stringIcSt11char_traitsIcESaIcEE5c_strEv(ptr noundef nonnull align 8 dereferenceable(32) %10) #11
  %60 = call noundef i64 @_ZNKSt7__cxx1112basic_stringIcSt11char_traitsIcESaIcEE4sizeEv(ptr noundef nonnull align 8 dereferenceable(32) %10) #11
  %61 = call i32 @strncmp(ptr noundef %58, ptr noundef %59, i64 noundef %60) #18
  %62 = icmp eq i32 %61, 0
  br i1 %62, label %63, label %69

63:                                               ; preds = %57
  %64 = getelementptr inbounds nuw %"struct.pxrInternal_v0_24__pxrReserved__::(anonymous namespace)::_CheckResult", ptr %4, i32 0, i32 0
  store i8 1, ptr %64, align 1
  %65 = load i8, ptr %12, align 1
  %66 = trunc i8 %65 to i1
  %67 = getelementptr inbounds nuw %"struct.pxrInternal_v0_24__pxrReserved__::(anonymous namespace)::_CheckResult", ptr %4, i32 0, i32 1
  %68 = zext i1 %66 to i8
  store i8 %68, ptr %67, align 1
  br label %69

69:                                               ; preds = %63, %57
  br label %82

70:                                               ; preds = %49
  %71 = call noundef ptr @_ZNKSt7__cxx1112basic_stringIcSt11char_traitsIcESaIcEE5c_strEv(ptr noundef nonnull align 8 dereferenceable(32) %10) #11
  %72 = load ptr, ptr %6, align 8
  %73 = call i32 @strcmp(ptr noundef %71, ptr noundef %72) #18
  %74 = icmp eq i32 %73, 0
  br i1 %74, label %75, label %81

75:                                               ; preds = %70
  %76 = getelementptr inbounds nuw %"struct.pxrInternal_v0_24__pxrReserved__::(anonymous namespace)::_CheckResult", ptr %4, i32 0, i32 0
  store i8 1, ptr %76, align 1
  %77 = load i8, ptr %12, align 1
  %78 = trunc i8 %77 to i1
  %79 = getelementptr inbounds nuw %"struct.pxrInternal_v0_24__pxrReserved__::(anonymous namespace)::_CheckResult", ptr %4, i32 0, i32 1
  %80 = zext i1 %78 to i8
  store i8 %80, ptr %79, align 1
  br label %81

81:                                               ; preds = %75, %70
  br label %82

82:                                               ; preds = %81, %69
  store i32 0, ptr %11, align 4
  br label %83

83:                                               ; preds = %82, %44, %28
  call void @_ZNSt7__cxx1112basic_stringIcSt11char_traitsIcESaIcEED1Ev(ptr noundef nonnull align 8 dereferenceable(32) %10) #11
  %84 = load i32, ptr %11, align 4
  switch i32 %84, label %96 [
    i32 0, label %85
    i32 3, label %86
  ]

85:                                               ; preds = %83
  br label %86

86:                                               ; preds = %85, %83
  %87 = load ptr, ptr %8, align 8
  %88 = getelementptr inbounds %"class.std::__cxx11::basic_string", ptr %87, i32 1
  store ptr %88, ptr %8, align 8
  br label %21

89:                                               ; preds = %21
  %90 = load i16, ptr %4, align 1
  ret i16 %90

91:                                               ; preds = %38
  %92 = load ptr, ptr %13, align 8
  %93 = load i32, ptr %14, align 4
  %94 = insertvalue { ptr, i32 } poison, ptr %92, 0
  %95 = insertvalue { ptr, i32 } %94, i32 %93, 1
  resume { ptr, i32 } %95

96:                                               ; preds = %83
  unreachable
}