; Function Attrs: mustprogress uwtable
define internal fastcc range(i16 0, 512) i16 @_ZN32pxrInternal_v0_24__pxrReserved__L27_CheckSymbolAgainstPatternsEPKcNS_6TfSpanIKNSt7__cxx1112basic_stringIcSt11char_traitsIcESaIcEEEEE(ptr nocapture noundef readonly %0, ptr %1, i64 %2) unnamed_addr #0 personality ptr @__gxx_personality_v0 {
  %4 = alloca %"class.std::__cxx11::basic_string", align 8
  %5 = getelementptr inbounds %"class.std::__cxx11::basic_string", ptr %1, i64 %2
  %.not19 = icmp eq i64 %2, 0
  br i1 %.not19, label %._crit_edge, label %.lr.ph

.lr.ph:                                           ; preds = %3, %40
  %.022 = phi ptr [ %41, %40 ], [ %1, %3 ]
  %.sroa.4.021 = phi i8 [ %.sroa.4.1, %40 ], [ 0, %3 ]
  %.sroa.013.020 = phi i8 [ %.sroa.013.1, %40 ], [ 0, %3 ]
  call void @_ZNSt7__cxx1112basic_stringIcSt11char_traitsIcESaIcEEC1ERKS4_(ptr noundef nonnull align 8 dereferenceable(32) %4, ptr noundef nonnull align 8 dereferenceable(32) %.022)
  %6 = call noundef zeroext i1 @_ZNKSt7__cxx1112basic_stringIcSt11char_traitsIcESaIcEE5emptyEv(ptr noundef nonnull align 8 dereferenceable(32) %4) #12
  br i1 %6, label %40, label %7

7:                                                ; preds = %.lr.ph
  %8 = invoke noundef nonnull align 1 dereferenceable(1) ptr @_ZNSt7__cxx1112basic_stringIcSt11char_traitsIcESaIcEEixEm(ptr noundef nonnull align 8 dereferenceable(32) %4, i64 noundef 0)
          to label %9 unwind label %14

9:                                                ; preds = %7
  %10 = load i8, ptr %8, align 1
  %11 = icmp ne i8 %10, 45
  br i1 %11, label %16, label %12

12:                                               ; preds = %9
  %13 = invoke noundef nonnull align 8 dereferenceable(32) ptr @_ZNSt7__cxx1112basic_stringIcSt11char_traitsIcESaIcEE5eraseEmm(ptr noundef nonnull align 8 dereferenceable(32) %4, i64 noundef 0, i64 noundef 1)
          to label %16 unwind label %14

14:                                               ; preds = %25, %18, %12, %7
  %15 = landingpad { ptr, i32 }
          cleanup
  call void @_ZNSt7__cxx1112basic_stringIcSt11char_traitsIcESaIcEED1Ev(ptr noundef nonnull align 8 dereferenceable(32) %4) #12
  resume { ptr, i32 } %15

16:                                               ; preds = %12, %9
  %17 = call noundef zeroext i1 @_ZNKSt7__cxx1112basic_stringIcSt11char_traitsIcESaIcEE5emptyEv(ptr noundef nonnull align 8 dereferenceable(32) %4) #12
  br i1 %17, label %40, label %18

18:                                               ; preds = %16
  %19 = call noundef i64 @_ZNKSt7__cxx1112basic_stringIcSt11char_traitsIcESaIcEE4sizeEv(ptr noundef nonnull align 8 dereferenceable(32) %4) #12
  %20 = add i64 %19, -1
  %21 = invoke noundef nonnull align 1 dereferenceable(1) ptr @_ZNSt7__cxx1112basic_stringIcSt11char_traitsIcESaIcEEixEm(ptr noundef nonnull align 8 dereferenceable(32) %4, i64 noundef %20)
          to label %22 unwind label %14

22:                                               ; preds = %18
  %23 = load i8, ptr %21, align 1
  %24 = icmp eq i8 %23, 42
  br i1 %24, label %25, label %35

25:                                               ; preds = %22
  %26 = call noundef i64 @_ZNKSt7__cxx1112basic_stringIcSt11char_traitsIcESaIcEE4sizeEv(ptr noundef nonnull align 8 dereferenceable(32) %4) #12
  %27 = add i64 %26, -1
  %28 = invoke noundef nonnull align 8 dereferenceable(32) ptr @_ZNSt7__cxx1112basic_stringIcSt11char_traitsIcESaIcEE5eraseEmm(ptr noundef nonnull align 8 dereferenceable(32) %4, i64 noundef %27, i64 noundef -1)
          to label %29 unwind label %14

29:                                               ; preds = %25
  %30 = call noundef ptr @_ZNKSt7__cxx1112basic_stringIcSt11char_traitsIcESaIcEE5c_strEv(ptr noundef nonnull align 8 dereferenceable(32) %4) #12
  %31 = call noundef i64 @_ZNKSt7__cxx1112basic_stringIcSt11char_traitsIcESaIcEE4sizeEv(ptr noundef nonnull align 8 dereferenceable(32) %4) #12
  %32 = call i32 @strncmp(ptr noundef %0, ptr noundef %30, i64 noundef %31) #23
  %33 = icmp eq i32 %32, 0
  %34 = zext i1 %11 to i8
  %spec.select = select i1 %33, i8 1, i8 %.sroa.013.020
  %spec.select14 = select i1 %33, i8 %34, i8 %.sroa.4.021
  br label %40

35:                                               ; preds = %22
  %36 = call noundef ptr @_ZNKSt7__cxx1112basic_stringIcSt11char_traitsIcESaIcEE5c_strEv(ptr noundef nonnull align 8 dereferenceable(32) %4) #12
  %37 = call i32 @strcmp(ptr noundef nonnull dereferenceable(1) %36, ptr noundef nonnull dereferenceable(1) %0) #23
  %38 = icmp eq i32 %37, 0
  %39 = zext i1 %11 to i8
  %spec.select15 = select i1 %38, i8 1, i8 %.sroa.013.020
  %spec.select16 = select i1 %38, i8 %39, i8 %.sroa.4.021
  br label %40

40:                                               ; preds = %35, %29, %16, %.lr.ph
  %.sroa.013.1 = phi i8 [ %.sroa.013.020, %.lr.ph ], [ %.sroa.013.020, %16 ], [ %spec.select, %29 ], [ %spec.select15, %35 ]
  %.sroa.4.1 = phi i8 [ %.sroa.4.021, %.lr.ph ], [ %.sroa.4.021, %16 ], [ %spec.select14, %29 ], [ %spec.select16, %35 ]
  call void @_ZNSt7__cxx1112basic_stringIcSt11char_traitsIcESaIcEED1Ev(ptr noundef nonnull align 8 dereferenceable(32) %4) #12
  %41 = getelementptr inbounds i8, ptr %.022, i64 32
  %.not = icmp eq ptr %41, %5
  br i1 %.not, label %._crit_edge.loopexit, label %.lr.ph

._crit_edge.loopexit:                             ; preds = %40
  %42 = zext nneg i8 %.sroa.4.1 to i16
  %43 = shl nuw nsw i16 %42, 8
  %44 = zext nneg i8 %.sroa.013.1 to i16
  %45 = or disjoint i16 %43, %44
  br label %._crit_edge

._crit_edge:                                      ; preds = %._crit_edge.loopexit, %3
  %.sroa.013.0.insert.insert = phi i16 [ 0, %3 ], [ %45, %._crit_edge.loopexit ]
  ret i16 %.sroa.013.0.insert.insert
}